target datalayout = "e-m:e-p270:32:32-p271:32:32-p272:64:64-i64:64-i128:128-f80:128-n8:16:32:64-S128"
target triple = "x86_64-pc-linux-gnu"

%struct.Type_ = type { i32, ptr, ptr, ptr, %union.anon, ptr, ptr, %union.anon.0 }
%union.anon = type { ptr }
%union.anon.0 = type { %struct.TypeFunction }
%struct.TypeFunction = type { ptr, ptr, ptr }
%union.SourceSpan = type { i64 }
%union.anon.2 = type { ptr }
%union.anon.3 = type { i16 }
%union.anon.4 = type { %struct.FuncDecl }
%struct.FuncDecl = type { i32, [4 x i8], %struct.Signature_, i32, i32, %union.anon.11 }
%struct.Signature_ = type <{ %struct.CalleeAttributes, i16, i8, i32, i32, [4 x i8], ptr }>
%struct.CalleeAttributes = type { i8 }
%union.anon.11 = type { %struct.anon.12 }
%struct.anon.12 = type { i16, %union.anon.13 }
%union.anon.13 = type { ptr }
%struct.Vmem = type { ptr, i64, i64 }
%struct.Decl_ = type { ptr, ptr, %union.SourceSpan, i64, %union.anon.2, i32, %union.anon.3, i64, ptr, ptr, ptr, %union.anon.4 }

@.str = private unnamed_addr constant [36 x i8] c"FATAL ERROR %s -> in %s @ in %s:%d \00", align 1
@.str.1 = private unnamed_addr constant [22 x i8] c"Should be unreachable\00", align 1
@__func__.decl_new_with_type = private unnamed_addr constant [19 x i8] c"decl_new_with_type\00", align 1
@.str.2 = private unnamed_addr constant [104 x i8] c"generated/home/dtcxzyw/WorkSpace/Projects/compilers/llvm-opt-benchmark/bench/c3c/c3c/src/compiler/ast.c\00", align 1
@.str.3 = private unnamed_addr constant [6 x i8] c"$anon\00", align 1
@decl_arena = external global %struct.Vmem, align 8

; Function Attrs: nounwind uwtable
define internal ptr @decl_calloc() #0 {
  %1 = call ptr @vmem_alloc(ptr noundef @decl_arena, i64 noundef 136)
  ret ptr %1
}

; Function Attrs: nounwind uwtable
define dso_local ptr @decl_new_with_type(ptr noundef %0, i64 %1, i32 noundef %2) #0 {
  %4 = alloca i32, align 4
  %5 = alloca ptr, align 8
  %6 = alloca ptr, align 8
  %7 = alloca %union.SourceSpan, align 8
  %8 = alloca ptr, align 8
  %9 = alloca i32, align 4
  %10 = alloca ptr, align 8
  %11 = alloca i32, align 4
  %12 = alloca ptr, align 8
  %13 = getelementptr inbounds %union.SourceSpan, ptr %7, i32 0, i32 0
  store i64 %1, ptr %13, align 8
  store ptr %0, ptr %8, align 8
  store i32 %2, ptr %9, align 4
  %14 = call ptr @decl_calloc()
  store ptr %14, ptr %10, align 8
  %15 = load i32, ptr %9, align 4
  %16 = load ptr, ptr %10, align 8
  %17 = getelementptr inbounds %struct.Decl_, ptr %16, i32 0, i32 3
  %18 = zext i32 %15 to i64
  %19 = load i64, ptr %17, align 8
  %20 = and i64 %18, 127
  %21 = and i64 %19, -128
  %22 = or i64 %21, %20
  store i64 %22, ptr %17, align 8
  %23 = load ptr, ptr %8, align 8
  %24 = load ptr, ptr %10, align 8
  %25 = getelementptr inbounds %struct.Decl_, ptr %24, i32 0, i32 0
  store ptr %23, ptr %25, align 8
  %26 = load ptr, ptr %10, align 8
  %27 = getelementptr inbounds %struct.Decl_, ptr %26, i32 0, i32 2
  call void @llvm.memcpy.p0.p0.i64(ptr align 8 %27, ptr align 8 %7, i64 8, i1 false)
  store i32 0, ptr %11, align 4
  %28 = load i32, ptr %9, align 4
  switch i32 %28, label %43 [
    i32 16, label %29
    i32 17, label %29
    i32 22, label %32
    i32 25, label %33
    i32 23, label %34
    i32 14, label %35
    i32 11, label %36
    i32 10, label %37
    i32 24, label %38
    i32 2, label %39
    i32 19, label %40
    i32 21, label %40
    i32 8, label %40
    i32 1, label %40
    i32 20, label %40
    i32 9, label %40
    i32 4, label %40
    i32 6, label %40
    i32 5, label %40
    i32 7, label %40
    i32 18, label %40
    i32 3, label %40
    i32 26, label %40
    i32 12, label %40
    i32 15, label %40
    i32 0, label %40
    i32 13, label %40
  ]

29:                                               ; preds = %3, %3
  br label %30

30:                                               ; preds = %29
  call void (ptr, ...) @error_exit(ptr noundef @.str, ptr noundef @.str.1, ptr noundef @__func__.decl_new_with_type, ptr noundef @.str.2, i32 noundef 57) #4
  unreachable

31:                                               ; No predecessors!
  br label %32

32:                                               ; preds = %31, %3
  store i32 28, ptr %11, align 4
  br label %43

33:                                               ; preds = %3
  store i32 27, ptr %11, align 4
  br label %43

34:                                               ; preds = %3
  store i32 26, ptr %11, align 4
  br label %43

35:                                               ; preds = %3
  store i32 30, ptr %11, align 4
  br label %43

36:                                               ; preds = %3
  store i32 24, ptr %11, align 4
  br label %43

37:                                               ; preds = %3
  store i32 32, ptr %11, align 4
  br label %43

38:                                               ; preds = %3
  store i32 31, ptr %11, align 4
  br label %43

39:                                               ; preds = %3
  store i32 29, ptr %11, align 4
  br label %43

40:                                               ; preds = %3, %3, %3, %3, %3, %3, %3, %3, %3, %3, %3, %3, %3, %3, %3, %3, %3
  br label %41

41:                                               ; preds = %40
  call void (ptr, ...) @error_exit(ptr noundef @.str, ptr noundef @.str.1, ptr noundef @__func__.decl_new_with_type, ptr noundef @.str.2, i32 noundef 84) #4
  unreachable

42:                                               ; No predecessors!
  br label %43

43:                                               ; preds = %42, %39, %38, %37, %36, %35, %34, %33, %32, %3
  %44 = load i32, ptr %11, align 4
  %45 = load ptr, ptr %8, align 8
  %46 = icmp ne ptr %45, null
  br i1 %46, label %47, label %49

47:                                               ; preds = %43
  %48 = load ptr, ptr %8, align 8
  br label %50

49:                                               ; preds = %43
  br label %50

50:                                               ; preds = %49, %47
  %51 = phi ptr [ %48, %47 ], [ @.str.3, %49 ]
  store i32 %44, ptr %4, align 4
  store ptr %51, ptr %5, align 8
  %52 = call ptr @calloc_arena(i64 noundef 80) #5
  store ptr %52, ptr %6, align 8
  %53 = load i32, ptr %4, align 4
  %54 = load ptr, ptr %6, align 8
  store i32 %53, ptr %54, align 8
  %55 = load ptr, ptr %5, align 8
  %56 = load ptr, ptr %6, align 8
  %57 = getelementptr inbounds %struct.Type_, ptr %56, i32 0, i32 2
  store ptr %55, ptr %57, align 8
  %58 = load ptr, ptr %6, align 8
  call void @global_context_add_type(ptr noundef %58) #5
  %59 = load ptr, ptr %6, align 8
  store ptr %59, ptr %12, align 8
  %60 = load ptr, ptr %12, align 8
  %61 = load ptr, ptr %12, align 8
  %62 = getelementptr inbounds %struct.Type_, ptr %61, i32 0, i32 1
  store ptr %60, ptr %62, align 8
  %63 = load ptr, ptr %10, align 8
  %64 = load ptr, ptr %12, align 8
  %65 = getelementptr inbounds %struct.Type_, ptr %64, i32 0, i32 7
  store ptr %63, ptr %65, align 8
  %66 = load ptr, ptr %12, align 8
  %67 = load ptr, ptr %10, align 8
  %68 = getelementptr inbounds %struct.Decl_, ptr %67, i32 0, i32 10
  store ptr %66, ptr %68, align 8
  %69 = load ptr, ptr %10, align 8
  ret ptr %69
}