; Function Attrs: nounwind uwtable
define dso_local noundef ptr @decl_new_with_type(ptr noundef %0, i64 %1, i32 noundef %2) local_unnamed_addr #0 {
  %4 = tail call ptr @vmem_alloc(ptr noundef nonnull @decl_arena, i64 noundef 136) #9
  %5 = getelementptr inbounds i8, ptr %4, i64 24
  %6 = load i64, ptr %5, align 8
  %7 = and i32 %2, 127
  %8 = zext nneg i32 %7 to i64
  %9 = and i64 %6, -128
  %10 = or disjoint i64 %9, %8
  store i64 %10, ptr %5, align 8
  store ptr %0, ptr %4, align 8
  %11 = getelementptr inbounds i8, ptr %4, i64 16
  store i64 %1, ptr %11, align 8
  switch i32 %2, label %22 [
    i32 16, label %12
    i32 17, label %12
    i32 22, label %13
    i32 25, label %14
    i32 23, label %15
    i32 14, label %16
    i32 11, label %17
    i32 10, label %18
    i32 24, label %19
    i32 2, label %20
    i32 19, label %21
    i32 21, label %21
    i32 8, label %21
    i32 1, label %21
    i32 20, label %21
    i32 9, label %21
    i32 4, label %21
    i32 6, label %21
    i32 5, label %21
    i32 7, label %21
    i32 18, label %21
    i32 3, label %21
    i32 26, label %21
    i32 12, label %21
    i32 15, label %21
    i32 0, label %21
    i32 13, label %21
  ]

12:                                               ; preds = %3, %3
  tail call void (ptr, ...) @error_exit(ptr noundef nonnull @.str, ptr noundef nonnull @.str.1, ptr noundef nonnull @__func__.decl_new_with_type, ptr noundef nonnull @.str.2, i32 noundef 57) #10
  unreachable

13:                                               ; preds = %3
  br label %22

14:                                               ; preds = %3
  br label %22

15:                                               ; preds = %3
  br label %22

16:                                               ; preds = %3
  br label %22

17:                                               ; preds = %3
  br label %22

18:                                               ; preds = %3
  br label %22

19:                                               ; preds = %3
  br label %22

20:                                               ; preds = %3
  br label %22

21:                                               ; preds = %3, %3, %3, %3, %3, %3, %3, %3, %3, %3, %3, %3, %3, %3, %3, %3, %3
  tail call void (ptr, ...) @error_exit(ptr noundef nonnull @.str, ptr noundef nonnull @.str.1, ptr noundef nonnull @__func__.decl_new_with_type, ptr noundef nonnull @.str.2, i32 noundef 84) #10
  unreachable

22:                                               ; preds = %20, %19, %18, %17, %16, %15, %14, %13, %3
  %.0 = phi i32 [ 0, %3 ], [ 29, %20 ], [ 31, %19 ], [ 32, %18 ], [ 24, %17 ], [ 30, %16 ], [ 26, %15 ], [ 27, %14 ], [ 28, %13 ]
  %.not = icmp eq ptr %0, null
  %23 = select i1 %.not, ptr @.str.3, ptr %0
  %24 = tail call ptr @calloc_arena(i64 noundef 80) #9
  store i32 %.0, ptr %24, align 8
  %25 = getelementptr inbounds i8, ptr %24, i64 16
  store ptr %23, ptr %25, align 8
  tail call void @global_context_add_type(ptr noundef nonnull %24) #9
  %26 = getelementptr inbounds i8, ptr %24, i64 8
  store ptr %24, ptr %26, align 8
  %27 = getelementptr inbounds i8, ptr %24, i64 56
  store ptr %4, ptr %27, align 8
  %28 = getelementptr inbounds i8, ptr %4, i64 72
  store ptr %24, ptr %28, align 8
  ret ptr %4
}